target datalayout = "e-m:e-p270:32:32-p271:32:32-p272:64:64-i64:64-i128:128-f80:128-n8:16:32:64-S128"
target triple = "x86_64-pc-linux-gnu"

%struct.strbuf = type { i64, i64, ptr }
%struct.object_id = type { [32 x i8], i32 }
%struct.object = type { i32, %struct.object_id }
%struct.tag = type { %struct.object, ptr, ptr, i64 }
%struct.commit = type { %struct.object, i64, ptr, ptr, i32 }
%struct.repository = type { ptr, ptr, ptr, ptr, ptr, %struct.strmap, %struct.strmap, %struct.repo_path_cache, ptr, ptr, ptr, ptr, %struct.repo_settings, ptr, ptr, ptr, ptr, ptr, ptr, i32, i32, i32, ptr, ptr, i32, i32, i8 }
%struct.strmap = type { %struct.hashmap, ptr, i8 }
%struct.hashmap = type { ptr, ptr, ptr, i32, i32, i32, i32, i8 }
%struct.repo_path_cache = type { ptr, ptr, ptr, ptr, ptr, ptr, ptr }
%struct.repo_settings = type { i32, i32, i32, i32, i32, i32, i32, i32, i32, i32, i32, i32, ptr, i32, i32, i32, i32, i32, i32, i32, i64, i64, i64 }
%struct.commit_list = type { ptr, ptr }
%struct.signature_check = type { ptr, i64, i32, i64, ptr, ptr, i8, ptr, ptr, ptr, ptr, i32 }
%struct.commit_extra_header = type { ptr, ptr, ptr, i64 }

@the_repository = external global ptr, align 8
@.str.48 = private unnamed_addr constant [14 x i8] c"No signature\0A\00", align 1
@__const.show_one_mergetag.payload = private unnamed_addr constant %struct.strbuf { i64 0, i64 0, ptr @strbuf_slopbuf }, align 8
@__const.show_one_mergetag.signature = private unnamed_addr constant %struct.strbuf { i64 0, i64 0, ptr @strbuf_slopbuf }, align 8
@.str.51 = private unnamed_addr constant [20 x i8] c"malformed mergetag\0A\00", align 1
@.str.52 = private unnamed_addr constant [17 x i8] c"merged tag '%s'\0A\00", align 1
@.str.53 = private unnamed_addr constant [30 x i8] c"tag %s names a non-parent %s\0A\00", align 1
@.str.54 = private unnamed_addr constant [25 x i8] c"parent #%d, tagged '%s'\0A\00", align 1

; Function Attrs: nounwind uwtable
define internal i32 @which_parent(ptr noundef %0, ptr noundef %1) #0 {
  %3 = alloca i32, align 4
  %4 = alloca ptr, align 8
  %5 = alloca ptr, align 8
  %6 = alloca i32, align 4
  %7 = alloca ptr, align 8
  %8 = alloca i32, align 4
  store ptr %0, ptr %4, align 8, !tbaa !39
  store ptr %1, ptr %5, align 8, !tbaa !55
  call void @llvm.lifetime.start.p0(i64 4, ptr %6) #10
  call void @llvm.lifetime.start.p0(i64 8, ptr %7) #10
  store i32 0, ptr %6, align 4, !tbaa !15
  %9 = load ptr, ptr %5, align 8, !tbaa !55
  %10 = getelementptr inbounds nuw %struct.commit, ptr %9, i32 0, i32 2
  %11 = load ptr, ptr %10, align 8, !tbaa !195
  store ptr %11, ptr %7, align 8, !tbaa !198
  br label %12

12:                                               ; preds = %29, %2
  %13 = load ptr, ptr %7, align 8, !tbaa !198
  %14 = icmp ne ptr %13, null
  br i1 %14, label %15, label %33

15:                                               ; preds = %12
  %16 = load ptr, ptr %7, align 8, !tbaa !198
  %17 = getelementptr inbounds nuw %struct.commit_list, ptr %16, i32 0, i32 0
  %18 = load ptr, ptr %17, align 8, !tbaa !199
  %19 = getelementptr inbounds nuw %struct.commit, ptr %18, i32 0, i32 0
  %20 = getelementptr inbounds nuw %struct.object, ptr %19, i32 0, i32 1
  %21 = load ptr, ptr %4, align 8, !tbaa !39
  %22 = call i32 @oideq(ptr noundef %20, ptr noundef %21)
  %23 = icmp ne i32 %22, 0
  br i1 %23, label %24, label %26

24:                                               ; preds = %15
  %25 = load i32, ptr %6, align 4, !tbaa !15
  store i32 %25, ptr %3, align 4
  store i32 1, ptr %8, align 4
  br label %34

26:                                               ; preds = %15
  %27 = load i32, ptr %6, align 4, !tbaa !15
  %28 = add nsw i32 %27, 1
  store i32 %28, ptr %6, align 4, !tbaa !15
  br label %29

29:                                               ; preds = %26
  %30 = load ptr, ptr %7, align 8, !tbaa !198
  %31 = getelementptr inbounds nuw %struct.commit_list, ptr %30, i32 0, i32 1
  %32 = load ptr, ptr %31, align 8, !tbaa !201
  store ptr %32, ptr %7, align 8, !tbaa !198
  br label %12, !llvm.loop !241

33:                                               ; preds = %12
  store i32 -1, ptr %3, align 4
  store i32 1, ptr %8, align 4
  br label %34

34:                                               ; preds = %33, %24
  call void @llvm.lifetime.end.p0(i64 8, ptr %7) #10
  call void @llvm.lifetime.end.p0(i64 4, ptr %6) #10
  %35 = load i32, ptr %3, align 4
  ret i32 %35
}

; Function Attrs: inlinehint nounwind uwtable
define internal i32 @oideq(ptr noundef %0, ptr noundef %1) #2 {
  %3 = alloca ptr, align 8
  %4 = alloca ptr, align 8
  store ptr %0, ptr %3, align 8, !tbaa !39
  store ptr %1, ptr %4, align 8, !tbaa !39
  %5 = load ptr, ptr %3, align 8, !tbaa !39
  %6 = getelementptr inbounds nuw %struct.object_id, ptr %5, i32 0, i32 0
  %7 = getelementptr inbounds [32 x i8], ptr %6, i64 0, i64 0
  %8 = load ptr, ptr %4, align 8, !tbaa !39
  %9 = getelementptr inbounds nuw %struct.object_id, ptr %8, i32 0, i32 0
  %10 = getelementptr inbounds [32 x i8], ptr %9, i64 0, i64 0
  %11 = call i32 @memcmp(ptr noundef %7, ptr noundef %10, i64 noundef 32) #11
  %12 = icmp ne i32 %11, 0
  %13 = xor i1 %12, true
  %14 = zext i1 %13 to i32
  ret i32 %14
}

; Function Attrs: nounwind uwtable
define internal i32 @is_common_merge(ptr noundef %0) #0 {
  %2 = alloca ptr, align 8
  store ptr %0, ptr %2, align 8, !tbaa !55
  %3 = load ptr, ptr %2, align 8, !tbaa !55
  %4 = getelementptr inbounds nuw %struct.commit, ptr %3, i32 0, i32 2
  %5 = load ptr, ptr %4, align 8, !tbaa !195
  %6 = icmp ne ptr %5, null
  br i1 %6, label %7, label %24

7:                                                ; preds = %1
  %8 = load ptr, ptr %2, align 8, !tbaa !55
  %9 = getelementptr inbounds nuw %struct.commit, ptr %8, i32 0, i32 2
  %10 = load ptr, ptr %9, align 8, !tbaa !195
  %11 = getelementptr inbounds nuw %struct.commit_list, ptr %10, i32 0, i32 1
  %12 = load ptr, ptr %11, align 8, !tbaa !201
  %13 = icmp ne ptr %12, null
  br i1 %13, label %14, label %24

14:                                               ; preds = %7
  %15 = load ptr, ptr %2, align 8, !tbaa !55
  %16 = getelementptr inbounds nuw %struct.commit, ptr %15, i32 0, i32 2
  %17 = load ptr, ptr %16, align 8, !tbaa !195
  %18 = getelementptr inbounds nuw %struct.commit_list, ptr %17, i32 0, i32 1
  %19 = load ptr, ptr %18, align 8, !tbaa !201
  %20 = getelementptr inbounds nuw %struct.commit_list, ptr %19, i32 0, i32 1
  %21 = load ptr, ptr %20, align 8, !tbaa !201
  %22 = icmp ne ptr %21, null
  %23 = xor i1 %22, true
  br label %24

24:                                               ; preds = %14, %7, %1
  %25 = phi i1 [ false, %7 ], [ false, %1 ], [ %23, %14 ]
  %26 = zext i1 %25 to i32
  ret i32 %26
}

; Function Attrs: inlinehint nounwind uwtable
define internal void @strbuf_addstr(ptr noundef %0, ptr noundef %1) #2 {
  %3 = alloca ptr, align 8
  %4 = alloca ptr, align 8
  store ptr %0, ptr %3, align 8, !tbaa !57
  store ptr %1, ptr %4, align 8, !tbaa !9
  %5 = load ptr, ptr %3, align 8, !tbaa !57
  %6 = load ptr, ptr %4, align 8, !tbaa !9
  %7 = load ptr, ptr %4, align 8, !tbaa !9
  %8 = call i64 @strlen(ptr noundef %7) #11
  call void @strbuf_add(ptr noundef %5, ptr noundef %6, i64 noundef %8)
  ret void
}

; Function Attrs: nounwind uwtable
define internal i32 @show_one_mergetag(ptr noundef %0, ptr noundef %1, ptr noundef %2) #0 {
  %4 = alloca i32, align 4
  %5 = alloca ptr, align 8
  %6 = alloca ptr, align 8
  %7 = alloca ptr, align 8
  %8 = alloca ptr, align 8
  %9 = alloca %struct.object_id, align 4
  %10 = alloca ptr, align 8
  %11 = alloca %struct.strbuf, align 8
  %12 = alloca %struct.signature_check, align 8
  %13 = alloca i32, align 4
  %14 = alloca i32, align 4
  %15 = alloca %struct.strbuf, align 8
  %16 = alloca %struct.strbuf, align 8
  %17 = alloca i32, align 4
  store ptr %0, ptr %5, align 8, !tbaa !55
  store ptr %1, ptr %6, align 8, !tbaa !233
  store ptr %2, ptr %7, align 8, !tbaa !41
  call void @llvm.lifetime.start.p0(i64 8, ptr %8) #10
  %18 = load ptr, ptr %7, align 8, !tbaa !41
  store ptr %18, ptr %8, align 8, !tbaa !71
  call void @llvm.lifetime.start.p0(i64 36, ptr %9) #10
  call void @llvm.lifetime.start.p0(i64 8, ptr %10) #10
  call void @llvm.lifetime.start.p0(i64 24, ptr %11) #10
  call void @llvm.lifetime.start.p0(i64 96, ptr %12) #10
  call void @llvm.memset.p0.i64(ptr align 8 %12, i8 0, i64 96, i1 false)
  call void @llvm.lifetime.start.p0(i64 4, ptr %13) #10
  call void @llvm.lifetime.start.p0(i64 4, ptr %14) #10
  call void @llvm.lifetime.start.p0(i64 24, ptr %15) #10
  call void @llvm.memcpy.p0.p0.i64(ptr align 8 %15, ptr align 8 @__const.show_one_mergetag.payload, i64 24, i1 false)
  call void @llvm.lifetime.start.p0(i64 24, ptr %16) #10
  call void @llvm.memcpy.p0.p0.i64(ptr align 8 %16, ptr align 8 @__const.show_one_mergetag.signature, i64 24, i1 false)
  %19 = load ptr, ptr @the_repository, align 8, !tbaa !37
  %20 = getelementptr inbounds nuw %struct.repository, ptr %19, i32 0, i32 17
  %21 = load ptr, ptr %20, align 8, !tbaa !144
  %22 = load ptr, ptr %6, align 8, !tbaa !233
  %23 = getelementptr inbounds nuw %struct.commit_extra_header, ptr %22, i32 0, i32 2
  %24 = load ptr, ptr %23, align 8, !tbaa !235
  %25 = load ptr, ptr %6, align 8, !tbaa !233
  %26 = getelementptr inbounds nuw %struct.commit_extra_header, ptr %25, i32 0, i32 3
  %27 = load i64, ptr %26, align 8, !tbaa !237
  call void @hash_object_file(ptr noundef %21, ptr noundef %24, i64 noundef %27, i32 noundef 4, ptr noundef %9)
  %28 = load ptr, ptr @the_repository, align 8, !tbaa !37
  %29 = call ptr @lookup_tag(ptr noundef %28, ptr noundef %9)
  store ptr %29, ptr %10, align 8, !tbaa !238
  %30 = load ptr, ptr %10, align 8, !tbaa !238
  %31 = icmp ne ptr %30, null
  br i1 %31, label %33, label %32

32:                                               ; preds = %3
  store i32 -1, ptr %4, align 4
  store i32 1, ptr %17, align 4
  br label %126

33:                                               ; preds = %3
  call void @strbuf_init(ptr noundef %11, i64 noundef 256)
  %34 = load ptr, ptr @the_repository, align 8, !tbaa !37
  %35 = load ptr, ptr %10, align 8, !tbaa !238
  %36 = load ptr, ptr %6, align 8, !tbaa !233
  %37 = getelementptr inbounds nuw %struct.commit_extra_header, ptr %36, i32 0, i32 2
  %38 = load ptr, ptr %37, align 8, !tbaa !235
  %39 = load ptr, ptr %6, align 8, !tbaa !233
  %40 = getelementptr inbounds nuw %struct.commit_extra_header, ptr %39, i32 0, i32 3
  %41 = load i64, ptr %40, align 8, !tbaa !237
  %42 = call i32 @parse_tag_buffer(ptr noundef %34, ptr noundef %35, ptr noundef %38, i64 noundef %41)
  %43 = icmp ne i32 %42, 0
  br i1 %43, label %44, label %45

44:                                               ; preds = %33
  call void @strbuf_addstr(ptr noundef %11, ptr noundef @.str.51)
  br label %94

45:                                               ; preds = %33
  %46 = load ptr, ptr %5, align 8, !tbaa !55
  %47 = call i32 @is_common_merge(ptr noundef %46)
  %48 = icmp ne i32 %47, 0
  br i1 %48, label %49, label %69

49:                                               ; preds = %45
  %50 = load ptr, ptr %10, align 8, !tbaa !238
  %51 = getelementptr inbounds nuw %struct.tag, ptr %50, i32 0, i32 1
  %52 = load ptr, ptr %51, align 8, !tbaa !48
  %53 = getelementptr inbounds nuw %struct.object, ptr %52, i32 0, i32 1
  %54 = load ptr, ptr %5, align 8, !tbaa !55
  %55 = getelementptr inbounds nuw %struct.commit, ptr %54, i32 0, i32 2
  %56 = load ptr, ptr %55, align 8, !tbaa !195
  %57 = getelementptr inbounds nuw %struct.commit_list, ptr %56, i32 0, i32 1
  %58 = load ptr, ptr %57, align 8, !tbaa !201
  %59 = getelementptr inbounds nuw %struct.commit_list, ptr %58, i32 0, i32 0
  %60 = load ptr, ptr %59, align 8, !tbaa !199
  %61 = getelementptr inbounds nuw %struct.commit, ptr %60, i32 0, i32 0
  %62 = getelementptr inbounds nuw %struct.object, ptr %61, i32 0, i32 1
  %63 = call i32 @oideq(ptr noundef %53, ptr noundef %62)
  %64 = icmp ne i32 %63, 0
  br i1 %64, label %65, label %69

65:                                               ; preds = %49
  %66 = load ptr, ptr %10, align 8, !tbaa !238
  %67 = getelementptr inbounds nuw %struct.tag, ptr %66, i32 0, i32 2
  %68 = load ptr, ptr %67, align 8, !tbaa !240
  call void (ptr, ptr, ...) @strbuf_addf(ptr noundef %11, ptr noundef @.str.52, ptr noundef %68)
  br label %93

69:                                               ; preds = %49, %45
  %70 = load ptr, ptr %10, align 8, !tbaa !238
  %71 = getelementptr inbounds nuw %struct.tag, ptr %70, i32 0, i32 1
  %72 = load ptr, ptr %71, align 8, !tbaa !48
  %73 = getelementptr inbounds nuw %struct.object, ptr %72, i32 0, i32 1
  %74 = load ptr, ptr %5, align 8, !tbaa !55
  %75 = call i32 @which_parent(ptr noundef %73, ptr noundef %74)
  store i32 %75, ptr %14, align 4, !tbaa !15
  %76 = icmp slt i32 %75, 0
  br i1 %76, label %77, label %86

77:                                               ; preds = %69
  %78 = load ptr, ptr %10, align 8, !tbaa !238
  %79 = getelementptr inbounds nuw %struct.tag, ptr %78, i32 0, i32 2
  %80 = load ptr, ptr %79, align 8, !tbaa !240
  %81 = load ptr, ptr %10, align 8, !tbaa !238
  %82 = getelementptr inbounds nuw %struct.tag, ptr %81, i32 0, i32 1
  %83 = load ptr, ptr %82, align 8, !tbaa !48
  %84 = getelementptr inbounds nuw %struct.object, ptr %83, i32 0, i32 1
  %85 = call ptr @oid_to_hex(ptr noundef %84)
  call void (ptr, ptr, ...) @strbuf_addf(ptr noundef %11, ptr noundef @.str.53, ptr noundef %80, ptr noundef %85)
  br label %92

86:                                               ; preds = %69
  %87 = load i32, ptr %14, align 4, !tbaa !15
  %88 = add nsw i32 %87, 1
  %89 = load ptr, ptr %10, align 8, !tbaa !238
  %90 = getelementptr inbounds nuw %struct.tag, ptr %89, i32 0, i32 2
  %91 = load ptr, ptr %90, align 8, !tbaa !240
  call void (ptr, ptr, ...) @strbuf_addf(ptr noundef %11, ptr noundef @.str.54, i32 noundef %88, ptr noundef %91)
  br label %92

92:                                               ; preds = %86, %77
  br label %93

93:                                               ; preds = %92, %65
  br label %94

94:                                               ; preds = %93, %44
  store i32 -1, ptr %13, align 4, !tbaa !15
  %95 = load ptr, ptr %6, align 8, !tbaa !233
  %96 = getelementptr inbounds nuw %struct.commit_extra_header, ptr %95, i32 0, i32 2
  %97 = load ptr, ptr %96, align 8, !tbaa !235
  %98 = load ptr, ptr %6, align 8, !tbaa !233
  %99 = getelementptr inbounds nuw %struct.commit_extra_header, ptr %98, i32 0, i32 3
  %100 = load i64, ptr %99, align 8, !tbaa !237
  %101 = call i32 @parse_signature(ptr noundef %97, i64 noundef %100, ptr noundef %15, ptr noundef %16)
  %102 = icmp ne i32 %101, 0
  br i1 %102, label %103, label %121

103:                                              ; preds = %94
  %104 = getelementptr inbounds nuw %struct.signature_check, ptr %12, i32 0, i32 2
  store i32 2, ptr %104, align 8, !tbaa !204
  %105 = getelementptr inbounds nuw %struct.signature_check, ptr %12, i32 0, i32 1
  %106 = call ptr @strbuf_detach(ptr noundef %15, ptr noundef %105)
  %107 = getelementptr inbounds nuw %struct.signature_check, ptr %12, i32 0, i32 0
  store ptr %106, ptr %107, align 8, !tbaa !206
  %108 = getelementptr inbounds nuw %struct.strbuf, ptr %16, i32 0, i32 2
  %109 = load ptr, ptr %108, align 8, !tbaa !119
  %110 = getelementptr inbounds nuw %struct.strbuf, ptr %16, i32 0, i32 1
  %111 = load i64, ptr %110, align 8, !tbaa !122
  %112 = call i32 @check_signature(ptr noundef %12, ptr noundef %109, i64 noundef %111)
  store i32 %112, ptr %13, align 4, !tbaa !15
  %113 = getelementptr inbounds nuw %struct.signature_check, ptr %12, i32 0, i32 4
  %114 = load ptr, ptr %113, align 8, !tbaa !207
  %115 = icmp ne ptr %114, null
  br i1 %115, label %116, label %119

116:                                              ; preds = %103
  %117 = getelementptr inbounds nuw %struct.signature_check, ptr %12, i32 0, i32 4
  %118 = load ptr, ptr %117, align 8, !tbaa !207
  call void @strbuf_addstr(ptr noundef %11, ptr noundef %118)
  br label %120

119:                                              ; preds = %103
  call void @strbuf_addstr(ptr noundef %11, ptr noundef @.str.48)
  br label %120

120:                                              ; preds = %119, %116
  call void @signature_check_clear(ptr noundef %12)
  br label %121

121:                                              ; preds = %120, %94
  %122 = load ptr, ptr %8, align 8, !tbaa !71
  %123 = load i32, ptr %13, align 4, !tbaa !15
  %124 = getelementptr inbounds nuw %struct.strbuf, ptr %11, i32 0, i32 2
  %125 = load ptr, ptr %124, align 8, !tbaa !119
  call void @show_sig_lines(ptr noundef %122, i32 noundef %123, ptr noundef %125)
  call void @strbuf_release(ptr noundef %11)
  call void @strbuf_release(ptr noundef %15)
  call void @strbuf_release(ptr noundef %16)
  store i32 0, ptr %4, align 4
  store i32 1, ptr %17, align 4
  br label %126

126:                                              ; preds = %121, %32
  call void @llvm.lifetime.end.p0(i64 24, ptr %16) #10
  call void @llvm.lifetime.end.p0(i64 24, ptr %15) #10
  call void @llvm.lifetime.end.p0(i64 4, ptr %14) #10
  call void @llvm.lifetime.end.p0(i64 4, ptr %13) #10
  call void @llvm.lifetime.end.p0(i64 96, ptr %12) #10
  call void @llvm.lifetime.end.p0(i64 24, ptr %11) #10
  call void @llvm.lifetime.end.p0(i64 8, ptr %10) #10
  call void @llvm.lifetime.end.p0(i64 36, ptr %9) #10
  call void @llvm.lifetime.end.p0(i64 8, ptr %8) #10
  %127 = load i32, ptr %4, align 4
  ret i32 %127
}