; Function Attrs: nounwind uwtable
define internal range(i32 -1, 1) i32 @show_one_mergetag(ptr noundef readonly captures(none) %0, ptr noundef readonly captures(none) %1, ptr noundef readonly captures(none) %2) #0 {
  %4 = alloca %struct.object_id, align 4
  %5 = alloca %struct.strbuf, align 8
  %6 = alloca %struct.signature_check, align 8
  %7 = alloca %struct.strbuf, align 8
  %8 = alloca %struct.strbuf, align 8
  call void @llvm.lifetime.start.p0(i64 36, ptr nonnull %4) #15
  call void @llvm.lifetime.start.p0(i64 24, ptr nonnull %5) #15
  call void @llvm.lifetime.start.p0(i64 96, ptr nonnull %6) #15
  call void @llvm.memset.p0.i64(ptr noundef nonnull align 8 dereferenceable(96) %6, i8 0, i64 96, i1 false)
  call void @llvm.lifetime.start.p0(i64 24, ptr nonnull %7) #15
  call void @llvm.memcpy.p0.p0.i64(ptr noundef nonnull align 8 dereferenceable(24) %7, ptr noundef nonnull align 8 dereferenceable(24) @__const.do_remerge_diff.parent2_desc, i64 24, i1 false)
  call void @llvm.lifetime.start.p0(i64 24, ptr nonnull %8) #15
  call void @llvm.memcpy.p0.p0.i64(ptr noundef nonnull align 8 dereferenceable(24) %8, ptr noundef nonnull align 8 dereferenceable(24) @__const.do_remerge_diff.parent2_desc, i64 24, i1 false)
  %9 = load ptr, ptr @the_repository, align 8, !tbaa !15
  %10 = getelementptr inbounds nuw i8, ptr %9, i64 400
  %11 = load ptr, ptr %10, align 8, !tbaa !121
  %12 = getelementptr inbounds nuw i8, ptr %1, i64 16
  %13 = load ptr, ptr %12, align 8, !tbaa !222
  %14 = getelementptr inbounds nuw i8, ptr %1, i64 24
  %15 = load i64, ptr %14, align 8, !tbaa !225
  call void @hash_object_file(ptr noundef %11, ptr noundef %13, i64 noundef %15, i32 noundef 4, ptr noundef nonnull %4) #15
  %16 = load ptr, ptr @the_repository, align 8, !tbaa !15
  %17 = call ptr @lookup_tag(ptr noundef %16, ptr noundef nonnull %4) #15
  %.not = icmp eq ptr %17, null
  br i1 %.not, label %79, label %18

18:                                               ; preds = %3
  call void @strbuf_init(ptr noundef nonnull %5, i64 noundef 256) #15
  %19 = load ptr, ptr @the_repository, align 8, !tbaa !15
  %20 = load ptr, ptr %12, align 8, !tbaa !222
  %21 = load i64, ptr %14, align 8, !tbaa !225
  %22 = call i32 @parse_tag_buffer(ptr noundef %19, ptr noundef nonnull %17, ptr noundef %20, i64 noundef %21) #15
  %.not25 = icmp eq i32 %22, 0
  br i1 %.not25, label %24, label %23

23:                                               ; preds = %18
  call void @strbuf_add(ptr noundef nonnull %5, ptr noundef nonnull @.str.51, i64 noundef 19) #15
  br label %57

24:                                               ; preds = %18
  %25 = getelementptr i8, ptr %0, i64 48
  %.val = load ptr, ptr %25, align 8, !tbaa !226
  %.not.i = icmp eq ptr %.val, null
  br i1 %.not.i, label %is_common_merge.exit.thread.thread, label %29

is_common_merge.exit.thread.thread:               ; preds = %24
  %26 = getelementptr inbounds nuw i8, ptr %17, i64 40
  %27 = load ptr, ptr %26, align 8, !tbaa !36
  %28 = getelementptr inbounds nuw i8, ptr %27, i64 4
  br label %.loopexit

29:                                               ; preds = %24
  %30 = getelementptr inbounds nuw i8, ptr %.val, i64 8
  %31 = load ptr, ptr %30, align 8, !tbaa !146
  %.not4.i = icmp eq ptr %31, null
  br i1 %.not4.i, label %is_common_merge.exit.thread, label %is_common_merge.exit

is_common_merge.exit:                             ; preds = %29
  %32 = getelementptr inbounds nuw i8, ptr %31, i64 8
  %33 = load ptr, ptr %32, align 8, !tbaa !146
  %.not5.i.not = icmp eq ptr %33, null
  br i1 %.not5.i.not, label %34, label %is_common_merge.exit.thread

34:                                               ; preds = %is_common_merge.exit
  %35 = getelementptr inbounds nuw i8, ptr %17, i64 40
  %36 = load ptr, ptr %35, align 8, !tbaa !36
  %37 = getelementptr inbounds nuw i8, ptr %36, i64 4
  %38 = load ptr, ptr %31, align 8, !tbaa !142
  %39 = getelementptr inbounds nuw i8, ptr %38, i64 4
  %bcmp.i = call i32 @bcmp(ptr noundef nonnull readonly dereferenceable(32) %37, ptr noundef nonnull readonly dereferenceable(32) %39, i64 32)
  %.not.i30.not = icmp eq i32 %bcmp.i, 0
  br i1 %.not.i30.not, label %40, label %is_common_merge.exit.thread

40:                                               ; preds = %34
  %41 = getelementptr inbounds nuw i8, ptr %17, i64 48
  %42 = load ptr, ptr %41, align 8, !tbaa !228
  call void (ptr, ptr, ...) @strbuf_addf(ptr noundef nonnull %5, ptr noundef nonnull @.str.52, ptr noundef %42) #15
  br label %57

is_common_merge.exit.thread:                      ; preds = %29, %34, %is_common_merge.exit
  %43 = getelementptr inbounds nuw i8, ptr %17, i64 40
  %44 = load ptr, ptr %43, align 8, !tbaa !36
  %45 = getelementptr inbounds nuw i8, ptr %44, i64 4
  br label %.lr.ph.i

.lr.ph.i:                                         ; preds = %is_common_merge.exit.thread, %49
  %.013.i = phi ptr [ %.0.i, %49 ], [ %.val, %is_common_merge.exit.thread ]
  %.0712.i = phi i32 [ %48, %49 ], [ 0, %is_common_merge.exit.thread ]
  %46 = load ptr, ptr %.013.i, align 8, !tbaa !142
  %47 = getelementptr inbounds nuw i8, ptr %46, i64 4
  %bcmp.i.i = call i32 @bcmp(ptr noundef nonnull readonly dereferenceable(32) %47, ptr noundef nonnull readonly dereferenceable(32) %45, i64 32)
  %.not.i.not.i = icmp eq i32 %bcmp.i.i, 0
  %48 = add nuw nsw i32 %.0712.i, 1
  br i1 %.not.i.not.i, label %which_parent.exit, label %49

49:                                               ; preds = %.lr.ph.i
  %50 = getelementptr inbounds nuw i8, ptr %.013.i, i64 8
  %.0.i = load ptr, ptr %50, align 8, !tbaa !141
  %.not.i31 = icmp eq ptr %.0.i, null
  br i1 %.not.i31, label %.loopexit, label %.lr.ph.i, !llvm.loop !229

.loopexit:                                        ; preds = %49, %is_common_merge.exit.thread.thread
  %51 = phi ptr [ %28, %is_common_merge.exit.thread.thread ], [ %45, %49 ]
  %52 = getelementptr inbounds nuw i8, ptr %17, i64 48
  %53 = load ptr, ptr %52, align 8, !tbaa !228
  %54 = call ptr @oid_to_hex(ptr noundef nonnull %51) #15
  call void (ptr, ptr, ...) @strbuf_addf(ptr noundef nonnull %5, ptr noundef nonnull @.str.53, ptr noundef %53, ptr noundef %54) #15
  br label %57

which_parent.exit:                                ; preds = %.lr.ph.i
  %55 = getelementptr inbounds nuw i8, ptr %17, i64 48
  %56 = load ptr, ptr %55, align 8, !tbaa !228
  call void (ptr, ptr, ...) @strbuf_addf(ptr noundef nonnull %5, ptr noundef nonnull @.str.54, i32 noundef %48, ptr noundef %56) #15
  br label %57

57:                                               ; preds = %40, %which_parent.exit, %.loopexit, %23
  %58 = load ptr, ptr %12, align 8, !tbaa !222
  %59 = load i64, ptr %14, align 8, !tbaa !225
  %60 = call i32 @parse_signature(ptr noundef %58, i64 noundef %59, ptr noundef nonnull %7, ptr noundef nonnull %8) #15
  %.not28 = icmp eq i32 %60, 0
  br i1 %.not28, label %76, label %61

61:                                               ; preds = %57
  %62 = getelementptr inbounds nuw i8, ptr %6, i64 16
  store i32 2, ptr %62, align 8, !tbaa !156
  %63 = getelementptr inbounds nuw i8, ptr %6, i64 8
  %64 = call ptr @strbuf_detach(ptr noundef nonnull %7, ptr noundef nonnull %63) #15
  store ptr %64, ptr %6, align 8, !tbaa !158
  %65 = getelementptr inbounds nuw i8, ptr %8, i64 16
  %66 = load ptr, ptr %65, align 8, !tbaa !97
  %67 = getelementptr inbounds nuw i8, ptr %8, i64 8
  %68 = load i64, ptr %67, align 8, !tbaa !100
  %69 = call i32 @check_signature(ptr noundef nonnull %6, ptr noundef %66, i64 noundef %68) #15
  %70 = getelementptr inbounds nuw i8, ptr %6, i64 32
  %71 = load ptr, ptr %70, align 8, !tbaa !230
  %.not29 = icmp eq ptr %71, null
  br i1 %.not29, label %74, label %72

72:                                               ; preds = %61
  %73 = call i64 @strlen(ptr noundef nonnull dereferenceable(1) %71) #16
  call void @strbuf_add(ptr noundef nonnull %5, ptr noundef nonnull %71, i64 noundef %73) #15
  br label %75

74:                                               ; preds = %61
  call void @strbuf_add(ptr noundef nonnull %5, ptr noundef nonnull @.str.48, i64 noundef 13) #15
  br label %75

75:                                               ; preds = %74, %72
  call void @signature_check_clear(ptr noundef nonnull %6) #15
  br label %76

76:                                               ; preds = %75, %57
  %.021 = phi i32 [ %69, %75 ], [ -1, %57 ]
  %77 = getelementptr inbounds nuw i8, ptr %5, i64 16
  %78 = load ptr, ptr %77, align 8, !tbaa !97
  call fastcc void @show_sig_lines(ptr noundef %2, i32 noundef %.021, ptr noundef %78)
  call void @strbuf_release(ptr noundef nonnull %5) #15
  call void @strbuf_release(ptr noundef nonnull %7) #15
  call void @strbuf_release(ptr noundef nonnull %8) #15
  br label %79

79:                                               ; preds = %3, %76
  %.0 = phi i32 [ 0, %76 ], [ -1, %3 ]
  call void @llvm.lifetime.end.p0(i64 24, ptr nonnull %8) #15
  call void @llvm.lifetime.end.p0(i64 24, ptr nonnull %7) #15
  call void @llvm.lifetime.end.p0(i64 96, ptr nonnull %6) #15
  call void @llvm.lifetime.end.p0(i64 24, ptr nonnull %5) #15
  call void @llvm.lifetime.end.p0(i64 36, ptr nonnull %4) #15
  ret i32 %.0
}